; ModuleID = '1471.c'
source_filename = "1471.c"
target datalayout = "e-m:e-p270:32:32-p271:32:32-p272:64:64-i64:64-f80:128-n8:16:32:64-S128"
target triple = "x86_64-pc-linux-gnu"

%struct.student = type { [100 x i8], %struct.student* }

@.str = private unnamed_addr constant [4 x i8] c"end\00", align 1

; Function Attrs: noinline nounwind uwtable
define dso_local void @main() #0 {
  %1 = alloca %struct.student*, align 8
  %2 = alloca %struct.student*, align 8
  %3 = alloca %struct.student*, align 8
  %4 = alloca %struct.student*, align 8
  %5 = load %struct.student*, %struct.student** %4, align 8
  store %struct.student* %5, %struct.student** %1, align 8
  %6 = load %struct.student*, %struct.student** %1, align 8
  %7 = getelementptr inbounds %struct.student, %struct.student* %6, i32 0, i32 1
  store %struct.student* null, %struct.student** %7, align 8
  %8 = load %struct.student*, %struct.student** %1, align 8
  %9 = getelementptr inbounds %struct.student, %struct.student* %8, i32 0, i32 0
  %10 = getelementptr inbounds [100 x i8], [100 x i8]* %9, i64 0, i64 0
  %11 = call i32 (i8*, ...) bitcast (i32 (...)* @gets to i32 (i8*, ...)*)(i8* %10)
  br label %12

12:                                               ; preds = %22, %0
  %13 = load %struct.student*, %struct.student** %4, align 8
  store %struct.student* %13, %struct.student** %2, align 8
  %14 = load %struct.student*, %struct.student** %1, align 8
  %15 = load %struct.student*, %struct.student** %2, align 8
  %16 = getelementptr inbounds %struct.student, %struct.student* %15, i32 0, i32 1
  store %struct.student* %14, %struct.student** %16, align 8
  %17 = load %struct.student*, %struct.student** %2, align 8
  store %struct.student* %17, %struct.student** %1, align 8
  %18 = load %struct.student*, %struct.student** %2, align 8
  %19 = getelementptr inbounds %struct.student, %struct.student* %18, i32 0, i32 0
  %20 = getelementptr inbounds [100 x i8], [100 x i8]* %19, i64 0, i64 0
  %21 = call i32 (i8*, ...) bitcast (i32 (...)* @gets to i32 (i8*, ...)*)(i8* %20)
  br label %22

22:                                               ; preds = %12
  %23 = load %struct.student*, %struct.student** %1, align 8
  %24 = getelementptr inbounds %struct.student, %struct.student* %23, i32 0, i32 0
  %25 = getelementptr inbounds [100 x i8], [100 x i8]* %24, i64 0, i64 0
  %26 = call i32 @strcmp(i8* %25, i8* getelementptr inbounds ([4 x i8], [4 x i8]* @.str, i64 0, i64 0)) #3
  %27 = icmp ne i32 %26, 0
  br i1 %27, label %12, label %28

28:                                               ; preds = %22
  %29 = load %struct.student*, %struct.student** %1, align 8
  %30 = getelementptr inbounds %struct.student, %struct.student* %29, i32 0, i32 1
  %31 = load %struct.student*, %struct.student** %30, align 8
  store %struct.student* %31, %struct.student** %1, align 8
  %32 = load %struct.student*, %struct.student** %1, align 8
  store %struct.student* %32, %struct.student** %3, align 8
  br label %33

33:                                               ; preds = %41, %28
  %34 = load %struct.student*, %struct.student** %3, align 8
  %35 = icmp ne %struct.student* %34, null
  br i1 %35, label %36, label %45

36:                                               ; preds = %33
  %37 = load %struct.student*, %struct.student** %3, align 8
  %38 = getelementptr inbounds %struct.student, %struct.student* %37, i32 0, i32 0
  %39 = getelementptr inbounds [100 x i8], [100 x i8]* %38, i64 0, i64 0
  %40 = call i32 @puts(i8* %39)
  br label %41

41:                                               ; preds = %36
  %42 = load %struct.student*, %struct.student** %3, align 8
  %43 = getelementptr inbounds %struct.student, %struct.student* %42, i32 0, i32 1
  %44 = load %struct.student*, %struct.student** %43, align 8
  store %struct.student* %44, %struct.student** %3, align 8
  br label %33

45:                                               ; preds = %33
  ret void
}

declare dso_local i32 @gets(...) #1

; Function Attrs: nounwind readonly
declare dso_local i32 @strcmp(i8*, i8*) #2

declare dso_local i32 @puts(i8*) #1


!llvm.module.flags = !{!0}
!llvm.ident = !{!1}

!0 = !{i32 1, !"wchar_size", i32 4}
!1 = !{!"clang version 10.0.0-4ubuntu1 "}
